target datalayout = "e-m:e-p270:32:32-p271:32:32-p272:64:64-i64:64-f80:128-n8:16:32:64-S128"
target triple = "x86_64-pc-linux-gnu"

%struct.tushu = type { i32, [27 x i8] }

@book = common dso_local global [1000 x %struct.tushu] zeroinitializer, align 16
@.str = private unnamed_addr constant [3 x i8] c"%d\00", align 1
@.str.1 = private unnamed_addr constant [6 x i8] c"%d %s\00", align 1
@.str.2 = private unnamed_addr constant [7 x i8] c"%c\0A%d\0A\00", align 1
@.str.3 = private unnamed_addr constant [4 x i8] c"%d\0A\00", align 1

; Function Attrs: noinline nounwind uwtable
define dso_local i32 @main() #0 {
  %1 = alloca i32, align 4
  %2 = alloca i32, align 4
  %3 = alloca i32, align 4
  %4 = alloca i32, align 4
  %5 = alloca [26 x i32], align 16
  %6 = alloca %struct.tushu*, align 8
  store i32 0, i32* %1, align 4
  store %struct.tushu* getelementptr inbounds ([1000 x %struct.tushu], [1000 x %struct.tushu]* @book, i64 0, i64 0), %struct.tushu** %6, align 8
  %7 = call i32 (i8*, ...) @__isoc99_scanf(i8* getelementptr inbounds ([3 x i8], [3 x i8]* @.str, i64 0, i64 0), i32* %2)
  store i32 0, i32* %3, align 4
  br label %8

8:                                                ; preds = %22, %0
  %9 = load i32, i32* %3, align 4
  %10 = load i32, i32* %2, align 4
  %11 = icmp slt i32 %9, %10
  br i1 %11, label %12, label %25

12:                                               ; preds = %8
  %13 = load i32, i32* %3, align 4
  %14 = sext i32 %13 to i64
  %15 = getelementptr inbounds [1000 x %struct.tushu], [1000 x %struct.tushu]* @book, i64 0, i64 %14
  %16 = getelementptr inbounds %struct.tushu, %struct.tushu* %15, i32 0, i32 0
  %17 = load i32, i32* %3, align 4
  %18 = sext i32 %17 to i64
  %19 = getelementptr inbounds [1000 x %struct.tushu], [1000 x %struct.tushu]* @book, i64 0, i64 %18
  %20 = getelementptr inbounds %struct.tushu, %struct.tushu* %19, i32 0, i32 1
  %21 = call i32 (i8*, ...) @__isoc99_scanf(i8* getelementptr inbounds ([6 x i8], [6 x i8]* @.str.1, i64 0, i64 0), i32* %16, [27 x i8]* %20)
  br label %22

22:                                               ; preds = %12
  %23 = load i32, i32* %3, align 4
  %24 = add nsw i32 %23, 1
  store i32 %24, i32* %3, align 4
  br label %8

25:                                               ; preds = %8
  %26 = load %struct.tushu*, %struct.tushu** %6, align 8
  %27 = getelementptr inbounds [26 x i32], [26 x i32]* %5, i64 0, i64 0
  %28 = load i32, i32* %2, align 4
  call void @jishu(%struct.tushu* %26, i32* %27, i32 %28)
  %29 = getelementptr inbounds [26 x i32], [26 x i32]* %5, i64 0, i64 0
  %30 = call i32 @max(i32* %29)
  store i32 %30, i32* %4, align 4
  %31 = load %struct.tushu*, %struct.tushu** %6, align 8
  %32 = load i32, i32* %4, align 4
  %33 = load i32, i32* %2, align 4
  call void @shu(%struct.tushu* %31, i32 %32, i32 %33)
  ret i32 0
}

; Function Attrs: noinline nounwind uwtable
define dso_local void @jishu(%struct.tushu* %0, i32* %1, i32 %2) #0 {
  %4 = alloca %struct.tushu*, align 8
  %5 = alloca i32*, align 8
  %6 = alloca i32, align 4
  %7 = alloca i32, align 4
  %8 = alloca i32, align 4
  %9 = alloca i32, align 4
  store %struct.tushu* %0, %struct.tushu** %4, align 8
  store i32* %1, i32** %5, align 8
  store i32 %2, i32* %6, align 4
  store i32 0, i32* %7, align 4
  br label %10

10:                                               ; preds = %18, %3
  %11 = load i32, i32* %7, align 4
  %12 = icmp slt i32 %11, 26
  br i1 %12, label %13, label %21

13:                                               ; preds = %10
  %14 = load i32*, i32** %5, align 8
  %15 = load i32, i32* %7, align 4
  %16 = sext i32 %15 to i64
  %17 = getelementptr inbounds i32, i32* %14, i64 %16
  store i32 0, i32* %17, align 4
  br label %18

18:                                               ; preds = %13
  %19 = load i32, i32* %7, align 4
  %20 = add nsw i32 %19, 1
  store i32 %20, i32* %7, align 4
  br label %10

21:                                               ; preds = %10
  store i32 0, i32* %7, align 4
  br label %22

22:                                               ; preds = %60, %21
  %23 = load i32, i32* %7, align 4
  %24 = load i32, i32* %6, align 4
  %25 = icmp slt i32 %23, %24
  br i1 %25, label %26, label %63

26:                                               ; preds = %22
  store i32 0, i32* %8, align 4
  br label %27

27:                                               ; preds = %47, %26
  %28 = load %struct.tushu*, %struct.tushu** %4, align 8
  %29 = load i32, i32* %7, align 4
  %30 = sext i32 %29 to i64
  %31 = getelementptr inbounds %struct.tushu, %struct.tushu* %28, i64 %30
  %32 = getelementptr inbounds %struct.tushu, %struct.tushu* %31, i32 0, i32 1
  %33 = load i32, i32* %8, align 4
  %34 = sext i32 %33 to i64
  %35 = getelementptr inbounds [27 x i8], [27 x i8]* %32, i64 0, i64 %34
  %36 = load i8, i8* %35, align 1
  %37 = sext i8 %36 to i32
  %38 = sub nsw i32 %37, 65
  store i32 %38, i32* %9, align 4
  %39 = load i32*, i32** %5, align 8
  %40 = load i32, i32* %9, align 4
  %41 = sext i32 %40 to i64
  %42 = getelementptr inbounds i32, i32* %39, i64 %41
  %43 = load i32, i32* %42, align 4
  %44 = add nsw i32 %43, 1
  store i32 %44, i32* %42, align 4
  %45 = load i32, i32* %8, align 4
  %46 = add nsw i32 %45, 1
  store i32 %46, i32* %8, align 4
  br label %47

47:                                               ; preds = %27
  %48 = load %struct.tushu*, %struct.tushu** %4, align 8
  %49 = load i32, i32* %7, align 4
  %50 = sext i32 %49 to i64
  %51 = getelementptr inbounds %struct.tushu, %struct.tushu* %48, i64 %50
  %52 = getelementptr inbounds %struct.tushu, %struct.tushu* %51, i32 0, i32 1
  %53 = load i32, i32* %8, align 4
  %54 = sext i32 %53 to i64
  %55 = getelementptr inbounds [27 x i8], [27 x i8]* %52, i64 0, i64 %54
  %56 = load i8, i8* %55, align 1
  %57 = sext i8 %56 to i32
  %58 = icmp ne i32 %57, 0
  br i1 %58, label %27, label %59

59:                                               ; preds = %47
  br label %60

60:                                               ; preds = %59
  %61 = load i32, i32* %7, align 4
  %62 = add nsw i32 %61, 1
  store i32 %62, i32* %7, align 4
  br label %22

63:                                               ; preds = %22
  ret void
}

; Function Attrs: noinline nounwind uwtable
define dso_local i32 @max(i32* %0) #0 {
  %2 = alloca i32*, align 8
  %3 = alloca i32, align 4
  %4 = alloca i32, align 4
  %5 = alloca i32, align 4
  store i32* %0, i32** %2, align 8
  store i32 0, i32* %5, align 4
  %6 = load i32*, i32** %2, align 8
  %7 = getelementptr inbounds i32, i32* %6, i64 0
  %8 = load i32, i32* %7, align 4
  store i32 %8, i32* %4, align 4
  store i32 1, i32* %3, align 4
  br label %9

9:                                                ; preds = %28, %1
  %10 = load i32, i32* %3, align 4
  %11 = icmp slt i32 %10, 26
  br i1 %11, label %12, label %31

12:                                               ; preds = %9
  %13 = load i32*, i32** %2, align 8
  %14 = load i32, i32* %3, align 4
  %15 = sext i32 %14 to i64
  %16 = getelementptr inbounds i32, i32* %13, i64 %15
  %17 = load i32, i32* %16, align 4
  %18 = load i32, i32* %4, align 4
  %19 = icmp sgt i32 %17, %18
  br i1 %19, label %20, label %27

20:                                               ; preds = %12
  %21 = load i32*, i32** %2, align 8
  %22 = load i32, i32* %3, align 4
  %23 = sext i32 %22 to i64
  %24 = getelementptr inbounds i32, i32* %21, i64 %23
  %25 = load i32, i32* %24, align 4
  store i32 %25, i32* %4, align 4
  %26 = load i32, i32* %3, align 4
  store i32 %26, i32* %5, align 4
  br label %27

27:                                               ; preds = %20, %12
  br label %28

28:                                               ; preds = %27
  %29 = load i32, i32* %3, align 4
  %30 = add nsw i32 %29, 1
  store i32 %30, i32* %3, align 4
  br label %9

31:                                               ; preds = %9
  %32 = load i32, i32* %5, align 4
  %33 = add nsw i32 65, %32
  %34 = load i32, i32* %4, align 4
  %35 = call i32 (i8*, ...) @printf(i8* getelementptr inbounds ([7 x i8], [7 x i8]* @.str.2, i64 0, i64 0), i32 %33, i32 %34)
  %36 = load i32, i32* %5, align 4
  ret i32 %36
}

; Function Attrs: noinline nounwind uwtable
define dso_local void @shu(%struct.tushu* %0, i32 %1, i32 %2) #0 {
  %4 = alloca %struct.tushu*, align 8
  %5 = alloca i32, align 4
  %6 = alloca i32, align 4
  %7 = alloca i8, align 1
  %8 = alloca i32, align 4
  %9 = alloca i32, align 4
  store %struct.tushu* %0, %struct.tushu** %4, align 8
  store i32 %1, i32* %5, align 4
  store i32 %2, i32* %6, align 4
  %10 = load i32, i32* %5, align 4
  %11 = add nsw i32 65, %10
  %12 = trunc i32 %11 to i8
  store i8 %12, i8* %7, align 1
  store i32 0, i32* %8, align 4
  br label %13

13:                                               ; preds = %56, %3
  %14 = load i32, i32* %8, align 4
  %15 = load i32, i32* %6, align 4
  %16 = icmp slt i32 %14, %15
  br i1 %16, label %17, label %59

17:                                               ; preds = %13
  store i32 0, i32* %9, align 4
  br label %18

18:                                               ; preds = %43, %17
  %19 = load %struct.tushu*, %struct.tushu** %4, align 8
  %20 = load i32, i32* %8, align 4
  %21 = sext i32 %20 to i64
  %22 = getelementptr inbounds %struct.tushu, %struct.tushu* %19, i64 %21
  %23 = getelementptr inbounds %struct.tushu, %struct.tushu* %22, i32 0, i32 1
  %24 = load i32, i32* %9, align 4
  %25 = sext i32 %24 to i64
  %26 = getelementptr inbounds [27 x i8], [27 x i8]* %23, i64 0, i64 %25
  %27 = load i8, i8* %26, align 1
  %28 = sext i8 %27 to i32
  %29 = load i8, i8* %7, align 1
  %30 = sext i8 %29 to i32
  %31 = icmp eq i32 %28, %30
  br i1 %31, label %32, label %40

32:                                               ; preds = %18
  %33 = load %struct.tushu*, %struct.tushu** %4, align 8
  %34 = load i32, i32* %8, align 4
  %35 = sext i32 %34 to i64
  %36 = getelementptr inbounds %struct.tushu, %struct.tushu* %33, i64 %35
  %37 = getelementptr inbounds %struct.tushu, %struct.tushu* %36, i32 0, i32 0
  %38 = load i32, i32* %37, align 4
  %39 = call i32 (i8*, ...) @printf(i8* getelementptr inbounds ([4 x i8], [4 x i8]* @.str.3, i64 0, i64 0), i32 %38)
  br label %40

40:                                               ; preds = %32, %18
  %41 = load i32, i32* %9, align 4
  %42 = add nsw i32 %41, 1
  store i32 %42, i32* %9, align 4
  br label %43

43:                                               ; preds = %40
  %44 = load %struct.tushu*, %struct.tushu** %4, align 8
  %45 = load i32, i32* %8, align 4
  %46 = sext i32 %45 to i64
  %47 = getelementptr inbounds %struct.tushu, %struct.tushu* %44, i64 %46
  %48 = getelementptr inbounds %struct.tushu, %struct.tushu* %47, i32 0, i32 1
  %49 = load i32, i32* %9, align 4
  %50 = sext i32 %49 to i64
  %51 = getelementptr inbounds [27 x i8], [27 x i8]* %48, i64 0, i64 %50
  %52 = load i8, i8* %51, align 1
  %53 = sext i8 %52 to i32
  %54 = icmp ne i32 %53, 0
  br i1 %54, label %18, label %55

55:                                               ; preds = %43
  br label %56

56:                                               ; preds = %55
  %57 = load i32, i32* %8, align 4
  %58 = add nsw i32 %57, 1
  store i32 %58, i32* %8, align 4
  br label %13

59:                                               ; preds = %13
  ret void
}